(dp0
I0
(dp1
S'execution_time'
p2
F48.61099982261658
sS'msen'
p3
cnumpy.core.multiarray
scalar
p4
(cnumpy
dtype
p5
(S'f8'
p6
I0
I1
tp7
Rp8
(I3
S'<'
p9
NNNI-1
I-1
I0
tp10
bS"\x9eMS\xe7\xa9\xd7'@"
p11
tp12
Rp13
sS'block_size'
p14
I4
sS'area_search'
p15
I4
sS'pepn'
p16
F86.9970286590626
ssI1
(dp17
g2
F134.1599998474121
sg3
g4
(g8
S'X\xb6x\xb5l\xe3*@'
p18
tp19
Rp20
sg14
I4
sg15
I8
sg16
F90.37764784817406
ssI2
(dp21
g2
F448.2689998149872
sg3
g4
(g8
S'~4\xb9z\xbd;1@'
p22
tp23
Rp24
sg14
I4
sg15
I16
sg16
F92.69625227643056
ssI3
(dp25
g2
F1479.1810002326965
sg3
g4
(g8
S'1X\xf1\xd8C\xee8@'
p26
tp27
Rp28
sg14
I4
sg15
I32
sg16
F94.30556886801496
ssI4
(dp29
g2
F5270.397000074387
sg3
g4
(g8
S'\x1b9\x9f\n_\x82C@'
p30
tp31
Rp32
sg14
I4
sg15
I64
sg16
F95.73181251797182
ssI5
(dp33
g2
F21.67900013923645
sg3
g4
(g8
S'B\x84\xf1$\xe2\xe7(@'
p34
tp35
Rp36
sg14
I8
sg15
I4
sg16
F85.87175309115307
ssI6
(dp37
g2
F48.632999897003174
sg3
g4
(g8
S'\xe7\xd5b\xff\xd5\xb9+@'
p38
tp39
Rp40
sg14
I8
sg15
I8
sg16
F87.10054634333365
ssI7
(dp41
g2
F133.12999987602234
sg3
g4
(g8
S'\xd6\xfa\xcd<\xac\r1@'
p42
tp43
Rp44
sg14
I8
sg15
I16
sg16
F88.37438895811368
ssI8
(dp45
g2
F420.36500000953674
sg3
g4
(g8
S'}\xa6\x8b\xd2h\xe26@'
p46
tp47
Rp48
sg14
I8
sg15
I32
sg16
F89.45557366050033
ssI9
(dp49
g2
F1414.7870001792908
sg3
g4
(g8
S'k]\xa9\x97\xbca?@'
p50
tp51
Rp52
sg14
I8
sg15
I64
sg16
F90.40256877216525
ssI10
(dp53
g2
F12.912999868392944
sg3
g4
(g8
S'5\xfb\xec\xd7\x904,@'
p54
tp55
Rp56
sg14
I16
sg15
I4
sg16
F84.57586504361161
ssI11
(dp57
g2
F22.819999933242798
sg3
g4
(g8
S'aS%0\xee\x8c.@'
p58
tp59
Rp60
sg14
I16
sg15
I8
sg16
F84.94488641809642
ssI12
(dp61
g2
F50.967000007629395
sg3
g4
(g8
S'p\xd0\xfb\xecQ\xb51@'
p62
tp63
Rp64
sg14
I16
sg15
I16
sg16
F85.30719831304513
ssI13
(dp65
g2
F138.46399998664856
sg3
g4
(g8
S'\x9b\xe9|Zl95@'
p66
tp67
Rp68
sg14
I16
sg15
I32
sg16
F85.7394804945845
ssI14
(dp69
g2
F425.31500005722046
sg3
g4
(g8
S"\xeb\x8f\x8f'\xb9E9@"
p70
tp71
Rp72
sg14
I16
sg15
I64
sg16
F86.3289561966836
ssI15
(dp73
g2
F9.982999801635742
sg3
g4
(g8
S'>~Q\x91E\xe30@'
p74
tp75
Rp76
sg14
I32
sg15
I4
sg16
F83.50714080322055
ssI16
(dp77
g2
F14.313999891281128
sg3
g4
(g8
S'\xaa\x00\xe7Iq\x831@'
p78
tp79
Rp80
sg14
I32
sg15
I8
sg16
F83.65474935301447
ssI17
(dp81
g2
F25.343000173568726
sg3
g4
(g8
S'0\xf1\xce\xd5c\xb42@'
p82
tp83
Rp84
sg14
I32
sg15
I16
sg16
F83.65474935301447
ssI18
(dp85
g2
F56.25099992752075
sg3
g4
(g8
S')\xc0\x9e\xd1\xe4\x964@'
p86
tp87
Rp88
sg14
I32
sg15
I32
sg16
F83.65474935301447
ssI19
(dp89
g2
F148.63700008392334
sg3
g4
(g8
S'\x9ab:P\x81\x8c7@'
p90
tp91
Rp92
sg14
I32
sg15
I64
sg16
F83.65474935301447
ssI20
(dp93
g2
F11.065999984741211
sg3
g4
(g8
S'P\xc6\xb0e\x06|0@'
p94
tp95
Rp96
sg14
I64
sg15
I4
sg16
F81.34381290137065
ss.